target datalayout = "e-m:e-p270:32:32-p271:32:32-p272:64:64-i64:64-i128:128-f80:128-n8:16:32:64-S128"
target triple = "x86_64-pc-linux-gnu"

; Function Attrs: nounwind uwtable
define i64 @OPENSSL_LH_strhash(ptr noundef %0) #0 {
  %2 = alloca i64, align 8
  %3 = alloca ptr, align 8
  %4 = alloca i64, align 8
  %5 = alloca i64, align 8
  %6 = alloca i64, align 8
  %7 = alloca i32, align 4
  %8 = alloca i32, align 4
  store ptr %0, ptr %3, align 8, !tbaa !25
  call void @llvm.lifetime.start.p0(i64 8, ptr %4) #5
  store i64 0, ptr %4, align 8, !tbaa !27
  call void @llvm.lifetime.start.p0(i64 8, ptr %5) #5
  call void @llvm.lifetime.start.p0(i64 8, ptr %6) #5
  call void @llvm.lifetime.start.p0(i64 4, ptr %7) #5
  %9 = load ptr, ptr %3, align 8, !tbaa !25
  %10 = icmp eq ptr %9, null
  br i1 %10, label %16, label %11

11:                                               ; preds = %1
  %12 = load ptr, ptr %3, align 8, !tbaa !25
  %13 = load i8, ptr %12, align 1, !tbaa !28
  %14 = sext i8 %13 to i32
  %15 = icmp eq i32 %14, 0
  br i1 %15, label %16, label %18

16:                                               ; preds = %11, %1
  %17 = load i64, ptr %4, align 8, !tbaa !27
  store i64 %17, ptr %2, align 8
  store i32 1, ptr %8, align 4
  br label %61

18:                                               ; preds = %11
  store i64 256, ptr %5, align 8, !tbaa !27
  br label %19

19:                                               ; preds = %23, %18
  %20 = load ptr, ptr %3, align 8, !tbaa !25
  %21 = load i8, ptr %20, align 1, !tbaa !28
  %22 = icmp ne i8 %21, 0
  br i1 %22, label %23, label %56

23:                                               ; preds = %19
  %24 = load i64, ptr %5, align 8, !tbaa !27
  %25 = load ptr, ptr %3, align 8, !tbaa !25
  %26 = load i8, ptr %25, align 1, !tbaa !28
  %27 = sext i8 %26 to i64
  %28 = or i64 %24, %27
  store i64 %28, ptr %6, align 8, !tbaa !27
  %29 = load i64, ptr %5, align 8, !tbaa !27
  %30 = add nsw i64 %29, 256
  store i64 %30, ptr %5, align 8, !tbaa !27
  %31 = load i64, ptr %6, align 8, !tbaa !27
  %32 = lshr i64 %31, 2
  %33 = load i64, ptr %6, align 8, !tbaa !27
  %34 = xor i64 %32, %33
  %35 = trunc i64 %34 to i32
  %36 = and i32 %35, 15
  store i32 %36, ptr %7, align 4, !tbaa !29
  %37 = load i64, ptr %4, align 8, !tbaa !27
  %38 = load i32, ptr %7, align 4, !tbaa !29
  %39 = zext i32 %38 to i64
  %40 = shl i64 %37, %39
  %41 = load i64, ptr %4, align 8, !tbaa !27
  %42 = load i32, ptr %7, align 4, !tbaa !29
  %43 = sub nsw i32 32, %42
  %44 = zext i32 %43 to i64
  %45 = lshr i64 %41, %44
  %46 = or i64 %40, %45
  store i64 %46, ptr %4, align 8, !tbaa !27
  %47 = load i64, ptr %4, align 8, !tbaa !27
  %48 = and i64 %47, 4294967295
  store i64 %48, ptr %4, align 8, !tbaa !27
  %49 = load i64, ptr %6, align 8, !tbaa !27
  %50 = load i64, ptr %6, align 8, !tbaa !27
  %51 = mul i64 %49, %50
  %52 = load i64, ptr %4, align 8, !tbaa !27
  %53 = xor i64 %52, %51
  store i64 %53, ptr %4, align 8, !tbaa !27
  %54 = load ptr, ptr %3, align 8, !tbaa !25
  %55 = getelementptr inbounds nuw i8, ptr %54, i32 1
  store ptr %55, ptr %3, align 8, !tbaa !25
  br label %19, !llvm.loop !30

56:                                               ; preds = %19
  %57 = load i64, ptr %4, align 8, !tbaa !27
  %58 = lshr i64 %57, 16
  %59 = load i64, ptr %4, align 8, !tbaa !27
  %60 = xor i64 %58, %59
  store i64 %60, ptr %2, align 8
  store i32 1, ptr %8, align 4
  br label %61

61:                                               ; preds = %56, %16
  call void @llvm.lifetime.end.p0(i64 4, ptr %7) #5
  call void @llvm.lifetime.end.p0(i64 8, ptr %6) #5
  call void @llvm.lifetime.end.p0(i64 8, ptr %5) #5
  call void @llvm.lifetime.end.p0(i64 8, ptr %4) #5
  %62 = load i64, ptr %2, align 8
  ret i64 %62
}